; Function Attrs: mustprogress uwtable
define noundef zeroext i1 @_ZNK7rocksdb12Configurable13AreEquivalentERKNS_13ConfigOptionsEPKS0_PNSt7__cxx1112basic_stringIcSt11char_traitsIcESaIcEEE(ptr noundef nonnull align 8 dereferenceable(32) %0, ptr noundef nonnull align 8 dereferenceable(80) %1, ptr noundef %2, ptr noundef initializes((8, 16)) %3) unnamed_addr #0 align 2 {
  %5 = getelementptr inbounds nuw i8, ptr %3, i64 8
  store i64 0, ptr %5, align 8, !tbaa !10
  %6 = load ptr, ptr %3, align 8, !tbaa !22
  store i8 0, ptr %6, align 1, !tbaa !13
  %7 = icmp eq ptr %0, %2
  %8 = getelementptr inbounds nuw i8, ptr %1, i64 44
  %9 = load i8, ptr %8, align 4
  %10 = icmp eq i8 %9, 1
  %or.cond = select i1 %7, i1 true, i1 %10
  br i1 %or.cond, label %14, label %11

11:                                               ; preds = %4
  %.not = icmp eq ptr %2, null
  br i1 %.not, label %14, label %12

12:                                               ; preds = %11
  %13 = tail call noundef zeroext i1 @_ZN7rocksdb18ConfigurableHelper13AreEquivalentERKNS_13ConfigOptionsERKNS_12ConfigurableES6_PNSt7__cxx1112basic_stringIcSt11char_traitsIcESaIcEEE(ptr noundef nonnull align 8 dereferenceable(80) %1, ptr noundef nonnull align 8 dereferenceable(32) %0, ptr noundef nonnull align 8 dereferenceable(32) %2, ptr noundef nonnull %3)
  br label %14

14:                                               ; preds = %11, %4, %12
  %.0 = phi i1 [ %13, %12 ], [ true, %4 ], [ false, %11 ]
  ret i1 %.0
}